; Function Attrs: mustprogress nounwind uwtable
define hidden void @_ZN5zxing18ReedSolomonDecoderD2Ev(ptr noundef nonnull readonly align 8 captures(none) dereferenceable(8) %0) unnamed_addr #1 align 2 {
  %2 = load ptr, ptr %0, align 8, !tbaa !14
  %.not.i = icmp eq ptr %2, null
  br i1 %.not.i, label %_ZN5zxing3RefINS_9GenericGFEED2Ev.exit, label %3

3:                                                ; preds = %1
  %4 = getelementptr inbounds nuw i8, ptr %2, i64 8
  %5 = load i32, ptr %4, align 8, !tbaa !17
  %6 = add i32 %5, -1
  store i32 %6, ptr %4, align 8, !tbaa !17
  %7 = icmp eq i32 %6, 0
  br i1 %7, label %8, label %_ZN5zxing3RefINS_9GenericGFEED2Ev.exit

8:                                                ; preds = %3
  store i32 -559026175, ptr %4, align 8, !tbaa !17
  %9 = load ptr, ptr %2, align 8, !tbaa !3
  %10 = getelementptr inbounds nuw i8, ptr %9, i64 8
  %11 = load ptr, ptr %10, align 8
  tail call void %11(ptr noundef nonnull align 8 dereferenceable(12) %2) #13
  br label %_ZN5zxing3RefINS_9GenericGFEED2Ev.exit

_ZN5zxing3RefINS_9GenericGFEED2Ev.exit:           ; preds = %1, %3, %8
  ret void
}